; Function Attrs: nofree nounwind uwtable
define range(i32 0, 2) i32 @stb_vorbis_seek(ptr noundef %0, i32 noundef %1) local_unnamed_addr #17 {
  %3 = alloca i32, align 4
  %4 = tail call i32 @stb_vorbis_seek_frame(ptr noundef %0, i32 noundef %1)
  %.not = icmp eq i32 %4, 0
  br i1 %.not, label %14, label %5

5:                                                ; preds = %2
  %6 = getelementptr inbounds nuw i8, ptr %0, i64 1408
  %7 = load i32, ptr %6, align 8, !tbaa !179
  %.not10 = icmp eq i32 %1, %7
  br i1 %.not10, label %14, label %8

8:                                                ; preds = %5
  call void @llvm.lifetime.start.p0(i64 4, ptr nonnull %3) #35
  %9 = call i32 @stb_vorbis_get_frame_float(ptr noundef nonnull %0, ptr noundef nonnull %3, ptr noundef null)
  %10 = sub i32 %1, %7
  %11 = getelementptr inbounds nuw i8, ptr %0, i64 1892
  %12 = load i32, ptr %11, align 4, !tbaa !155
  %13 = add i32 %10, %12
  store i32 %13, ptr %11, align 4, !tbaa !155
  call void @llvm.lifetime.end.p0(i64 4, ptr nonnull %3) #35
  br label %14

14:                                               ; preds = %5, %8, %2
  %.0 = phi i32 [ 0, %2 ], [ 1, %8 ], [ 1, %5 ]
  ret i32 %.0
}